target datalayout = "e-m:e-p270:32:32-p271:32:32-p272:64:64-i64:64-i128:128-f80:128-n8:16:32:64-S128"
target triple = "x86_64-pc-linux-gnu"

%struct.DdNode = type { i32, i32, ptr, %union.anon, i64 }
%union.anon = type { %struct.DdChildren }
%struct.DdChildren = type { ptr, ptr }

; Function Attrs: nounwind uwtable
define internal i32 @ddDagInt(ptr noundef %0) #0 {
  %2 = alloca i32, align 4
  %3 = alloca ptr, align 8
  %4 = alloca i32, align 4
  %5 = alloca i32, align 4
  store ptr %0, ptr %3, align 8
  %6 = load ptr, ptr %3, align 8
  %7 = getelementptr inbounds %struct.DdNode, ptr %6, i32 0, i32 2
  %8 = load ptr, ptr %7, align 8
  %9 = ptrtoint ptr %8 to i64
  %10 = and i64 %9, 1
  %11 = trunc i64 %10 to i32
  %12 = icmp ne i32 %11, 0
  br i1 %12, label %13, label %14

13:                                               ; preds = %1
  store i32 0, ptr %2, align 4
  br label %46

14:                                               ; preds = %1
  %15 = load ptr, ptr %3, align 8
  %16 = getelementptr inbounds %struct.DdNode, ptr %15, i32 0, i32 2
  %17 = load ptr, ptr %16, align 8
  %18 = ptrtoint ptr %17 to i64
  %19 = xor i64 %18, 1
  %20 = inttoptr i64 %19 to ptr
  %21 = load ptr, ptr %3, align 8
  %22 = getelementptr inbounds %struct.DdNode, ptr %21, i32 0, i32 2
  store ptr %20, ptr %22, align 8
  %23 = load ptr, ptr %3, align 8
  %24 = getelementptr inbounds %struct.DdNode, ptr %23, i32 0, i32 0
  %25 = load i32, ptr %24, align 8
  %26 = icmp eq i32 %25, 2147483647
  br i1 %26, label %27, label %28

27:                                               ; preds = %14
  store i32 1, ptr %2, align 4
  br label %46

28:                                               ; preds = %14
  %29 = load ptr, ptr %3, align 8
  %30 = getelementptr inbounds %struct.DdNode, ptr %29, i32 0, i32 3
  %31 = getelementptr inbounds %struct.DdChildren, ptr %30, i32 0, i32 0
  %32 = load ptr, ptr %31, align 8
  %33 = call i32 @ddDagInt(ptr noundef %32)
  store i32 %33, ptr %4, align 4
  %34 = load ptr, ptr %3, align 8
  %35 = getelementptr inbounds %struct.DdNode, ptr %34, i32 0, i32 3
  %36 = getelementptr inbounds %struct.DdChildren, ptr %35, i32 0, i32 1
  %37 = load ptr, ptr %36, align 8
  %38 = ptrtoint ptr %37 to i64
  %39 = and i64 %38, -2
  %40 = inttoptr i64 %39 to ptr
  %41 = call i32 @ddDagInt(ptr noundef %40)
  store i32 %41, ptr %5, align 4
  %42 = load i32, ptr %4, align 4
  %43 = add nsw i32 1, %42
  %44 = load i32, ptr %5, align 4
  %45 = add nsw i32 %43, %44
  store i32 %45, ptr %2, align 4
  br label %46

46:                                               ; preds = %28, %27, %13
  %47 = load i32, ptr %2, align 4
  ret i32 %47
}